target datalayout = "e-m:e-p270:32:32-p271:32:32-p272:64:64-i64:64-i128:128-f80:128-n8:16:32:64-S128"
target triple = "x86_64-pc-linux-gnu"

%struct.H5CX_node_t = type { %struct.H5CX_t, ptr }
%struct.H5CX_t = type { i64, ptr, i64, ptr, i64, ptr, i64, ptr, i64, ptr, i64, ptr, i64, i32, i64, i8, ptr, i8, ptr, i8, i32, i8, [3 x double], i8, i64, i8, i32, i8, %struct.H5Z_cb_t, i8, ptr, i8, %struct.H5T_vlen_alloc_info_t, i8, %struct.H5T_conv_cb_t, i8, i32, i8, i8, i8, i32, i8, i8, i32, i8, i8, i32, i8, i32, i8, i64, i8, i8, i8, i8, i8, ptr, i8, ptr, i8, i32, i8, i32, i8, %struct.H5VL_connector_prop_t, i8, ptr, i8 }
%struct.H5Z_cb_t = type { ptr, ptr }
%struct.H5T_vlen_alloc_info_t = type { ptr, ptr, ptr, ptr }
%struct.H5T_conv_cb_t = type { ptr, ptr }
%struct.H5VL_connector_prop_t = type { ptr, ptr }

@H5_libinit_g = external global i8, align 1
@H5_libterm_g = external global i8, align 1
@.str = private unnamed_addr constant [97 x i8] c"generated/home/dtcxzyw/WorkSpace/Projects/compilers/llvm-opt-benchmark/bench/hdf5/hdf5/src/H5F.c\00", align 1
@H5E_FUNC_g = external global i64, align 8
@H5E_CANTINIT_g = external global i64, align 8
@.str.1 = private unnamed_addr constant [30 x i8] c"library initialization failed\00", align 1
@H5F_init_g = external global i8, align 1
@.str.2 = private unnamed_addr constant [32 x i8] c"interface initialization failed\00", align 1
@H5E_CANTSET_g = external global i64, align 8
@.str.3 = private unnamed_addr constant [22 x i8] c"can't set API context\00", align 1
@H5E_ARGS_g = external global i64, align 8
@H5E_BADTYPE_g = external global i64, align 8
@H5E_FILE_g = external global i64, align 8
@__func__.H5Fclose = private unnamed_addr constant [9 x i8] c"H5Fclose\00", align 1
@.str.45 = private unnamed_addr constant [14 x i8] c"not a file ID\00", align 1
@H5E_CANTCLOSEFILE_g = external global i64, align 8
@.str.46 = private unnamed_addr constant [28 x i8] c"decrementing file ID failed\00", align 1

; Function Attrs: nounwind uwtable
define i32 @H5Fclose(i64 noundef %0) #0 {
  %2 = alloca i64, align 8
  %3 = alloca i32, align 4
  %4 = alloca %struct.H5CX_node_t, align 8
  %5 = alloca i8, align 1
  %6 = alloca i8, align 1
  store i64 %0, ptr %2, align 8, !tbaa !3
  call void @llvm.lifetime.start.p0(i64 4, ptr %3) #5
  store i32 0, ptr %3, align 4, !tbaa !18
  call void @llvm.lifetime.start.p0(i64 480, ptr %4) #5
  call void @llvm.memset.p0.i64(ptr align 8 %4, i8 0, i64 480, i1 false)
  call void @llvm.lifetime.start.p0(i64 1, ptr %5) #5
  store i8 0, ptr %5, align 1, !tbaa !7
  call void @llvm.lifetime.start.p0(i64 1, ptr %6) #5
  store i8 0, ptr %6, align 1, !tbaa !7
  br label %7

7:                                                ; preds = %1
  %8 = load i8, ptr @H5_libinit_g, align 1, !tbaa !7, !range !9, !noundef !10
  %9 = trunc i8 %8 to i1
  br i1 %9, label %14, label %10

10:                                               ; preds = %7
  %11 = load i8, ptr @H5_libterm_g, align 1, !tbaa !7, !range !9, !noundef !10
  %12 = trunc i8 %11 to i1
  %13 = xor i1 %12, true
  br label %14

14:                                               ; preds = %10, %7
  %15 = phi i1 [ false, %7 ], [ %13, %10 ]
  %16 = xor i1 %15, true
  %17 = xor i1 %16, true
  %18 = zext i1 %17 to i32
  %19 = sext i32 %18 to i64
  %20 = call i64 @llvm.expect.i64(i64 %19, i64 0)
  %21 = icmp ne i64 %20, 0
  br i1 %21, label %22, label %51

22:                                               ; preds = %14
  %23 = call i32 @H5_init_library()
  %24 = icmp slt i32 %23, 0
  %25 = xor i1 %24, true
  %26 = xor i1 %25, true
  %27 = zext i1 %26 to i32
  %28 = sext i32 %27 to i64
  %29 = call i64 @llvm.expect.i64(i64 %28, i64 0)
  %30 = icmp ne i64 %29, 0
  br i1 %30, label %31, label %50

31:                                               ; preds = %22
  br label %32

32:                                               ; preds = %31
  br label %33

33:                                               ; preds = %32
  br label %34

34:                                               ; preds = %33
  %35 = load i64, ptr @H5E_FUNC_g, align 8, !tbaa !3
  %36 = load i64, ptr @H5E_CANTINIT_g, align 8, !tbaa !3
  %37 = call i32 (ptr, ptr, i32, i64, i64, ptr, ...) @H5E_printf_stack(ptr noundef @.str, ptr noundef @__func__.H5Fclose, i32 noundef 1031, i64 noundef %35, i64 noundef %36, ptr noundef @.str.1)
  br label %38

38:                                               ; preds = %34
  br label %39

39:                                               ; preds = %38
  store i8 1, ptr %6, align 1, !tbaa !7
  %40 = load i8, ptr %6, align 1, !tbaa !7, !range !9, !noundef !10
  %41 = trunc i8 %40 to i1
  %42 = zext i1 %41 to i8
  store i8 %42, ptr %6, align 1, !tbaa !7
  br label %43

43:                                               ; preds = %39
  br label %44

44:                                               ; preds = %43
  br label %45

45:                                               ; preds = %44
  store i32 -1, ptr %3, align 4, !tbaa !18
  br label %171

46:                                               ; No predecessors!
  br label %47

47:                                               ; preds = %46
  br label %48

48:                                               ; preds = %47
  br label %49

49:                                               ; preds = %48
  br label %50

50:                                               ; preds = %49, %22
  br label %51

51:                                               ; preds = %50, %14
  %52 = load i8, ptr @H5F_init_g, align 1, !tbaa !7, !range !9, !noundef !10
  %53 = trunc i8 %52 to i1
  br i1 %53, label %58, label %54

54:                                               ; preds = %51
  %55 = load i8, ptr @H5_libterm_g, align 1, !tbaa !7, !range !9, !noundef !10
  %56 = trunc i8 %55 to i1
  %57 = xor i1 %56, true
  br label %58

58:                                               ; preds = %54, %51
  %59 = phi i1 [ false, %51 ], [ %57, %54 ]
  %60 = xor i1 %59, true
  %61 = xor i1 %60, true
  %62 = zext i1 %61 to i32
  %63 = sext i32 %62 to i64
  %64 = call i64 @llvm.expect.i64(i64 %63, i64 0)
  %65 = icmp ne i64 %64, 0
  br i1 %65, label %66, label %89

66:                                               ; preds = %58
  store i8 1, ptr @H5F_init_g, align 1, !tbaa !7
  %67 = call i32 @H5F__init_package()
  %68 = icmp slt i32 %67, 0
  br i1 %68, label %69, label %88

69:                                               ; preds = %66
  store i8 0, ptr @H5F_init_g, align 1, !tbaa !7
  br label %70

70:                                               ; preds = %69
  br label %71

71:                                               ; preds = %70
  br label %72

72:                                               ; preds = %71
  %73 = load i64, ptr @H5E_FUNC_g, align 8, !tbaa !3
  %74 = load i64, ptr @H5E_CANTINIT_g, align 8, !tbaa !3
  %75 = call i32 (ptr, ptr, i32, i64, i64, ptr, ...) @H5E_printf_stack(ptr noundef @.str, ptr noundef @__func__.H5Fclose, i32 noundef 1031, i64 noundef %73, i64 noundef %74, ptr noundef @.str.2)
  br label %76

76:                                               ; preds = %72
  br label %77

77:                                               ; preds = %76
  store i8 1, ptr %6, align 1, !tbaa !7
  %78 = load i8, ptr %6, align 1, !tbaa !7, !range !9, !noundef !10
  %79 = trunc i8 %78 to i1
  %80 = zext i1 %79 to i8
  store i8 %80, ptr %6, align 1, !tbaa !7
  br label %81

81:                                               ; preds = %77
  br label %82

82:                                               ; preds = %81
  br label %83

83:                                               ; preds = %82
  store i32 -1, ptr %3, align 4, !tbaa !18
  br label %171

84:                                               ; No predecessors!
  br label %85

85:                                               ; preds = %84
  br label %86

86:                                               ; preds = %85
  br label %87

87:                                               ; preds = %86
  br label %88

88:                                               ; preds = %87, %66
  br label %89

89:                                               ; preds = %88, %58
  br label %90

90:                                               ; preds = %89
  br label %91

91:                                               ; preds = %90
  br label %92

92:                                               ; preds = %91
  %93 = call i32 @H5CX_push(ptr noundef %4)
  %94 = icmp slt i32 %93, 0
  %95 = xor i1 %94, true
  %96 = xor i1 %95, true
  %97 = zext i1 %96 to i32
  %98 = sext i32 %97 to i64
  %99 = call i64 @llvm.expect.i64(i64 %98, i64 0)
  %100 = icmp ne i64 %99, 0
  br i1 %100, label %101, label %120

101:                                              ; preds = %92
  br label %102

102:                                              ; preds = %101
  br label %103

103:                                              ; preds = %102
  br label %104

104:                                              ; preds = %103
  %105 = load i64, ptr @H5E_FUNC_g, align 8, !tbaa !3
  %106 = load i64, ptr @H5E_CANTSET_g, align 8, !tbaa !3
  %107 = call i32 (ptr, ptr, i32, i64, i64, ptr, ...) @H5E_printf_stack(ptr noundef @.str, ptr noundef @__func__.H5Fclose, i32 noundef 1031, i64 noundef %105, i64 noundef %106, ptr noundef @.str.3)
  br label %108

108:                                              ; preds = %104
  br label %109

109:                                              ; preds = %108
  store i8 1, ptr %6, align 1, !tbaa !7
  %110 = load i8, ptr %6, align 1, !tbaa !7, !range !9, !noundef !10
  %111 = trunc i8 %110 to i1
  %112 = zext i1 %111 to i8
  store i8 %112, ptr %6, align 1, !tbaa !7
  br label %113

113:                                              ; preds = %109
  br label %114

114:                                              ; preds = %113
  br label %115

115:                                              ; preds = %114
  store i32 -1, ptr %3, align 4, !tbaa !18
  br label %171

116:                                              ; No predecessors!
  br label %117

117:                                              ; preds = %116
  br label %118

118:                                              ; preds = %117
  br label %119

119:                                              ; preds = %118
  br label %121

120:                                              ; preds = %92
  store i8 1, ptr %5, align 1, !tbaa !7
  br label %121

121:                                              ; preds = %120, %119
  br label %122

122:                                              ; preds = %121
  br label %123

123:                                              ; preds = %122
  %124 = call i32 @H5E_clear_stack()
  %125 = load i64, ptr %2, align 8, !tbaa !3
  %126 = call i32 @H5I_get_type(i64 noundef %125)
  %127 = icmp ne i32 1, %126
  br i1 %127, label %128, label %147

128:                                              ; preds = %123
  br label %129

129:                                              ; preds = %128
  br label %130

130:                                              ; preds = %129
  br label %131

131:                                              ; preds = %130
  %132 = load i64, ptr @H5E_ARGS_g, align 8, !tbaa !3
  %133 = load i64, ptr @H5E_BADTYPE_g, align 8, !tbaa !3
  %134 = call i32 (ptr, ptr, i32, i64, i64, ptr, ...) @H5E_printf_stack(ptr noundef @.str, ptr noundef @__func__.H5Fclose, i32 noundef 1035, i64 noundef %132, i64 noundef %133, ptr noundef @.str.45)
  br label %135

135:                                              ; preds = %131
  br label %136

136:                                              ; preds = %135
  store i8 1, ptr %6, align 1, !tbaa !7
  %137 = load i8, ptr %6, align 1, !tbaa !7, !range !9, !noundef !10
  %138 = trunc i8 %137 to i1
  %139 = zext i1 %138 to i8
  store i8 %139, ptr %6, align 1, !tbaa !7
  br label %140

140:                                              ; preds = %136
  br label %141

141:                                              ; preds = %140
  br label %142

142:                                              ; preds = %141
  store i32 -1, ptr %3, align 4, !tbaa !18
  br label %171

143:                                              ; No predecessors!
  br label %144

144:                                              ; preds = %143
  br label %145

145:                                              ; preds = %144
  br label %146

146:                                              ; preds = %145
  br label %147

147:                                              ; preds = %146, %123
  %148 = load i64, ptr %2, align 8, !tbaa !3
  %149 = call i32 @H5I_dec_app_ref(i64 noundef %148)
  %150 = icmp slt i32 %149, 0
  br i1 %150, label %151, label %170

151:                                              ; preds = %147
  br label %152

152:                                              ; preds = %151
  br label %153

153:                                              ; preds = %152
  br label %154

154:                                              ; preds = %153
  %155 = load i64, ptr @H5E_FILE_g, align 8, !tbaa !3
  %156 = load i64, ptr @H5E_CANTCLOSEFILE_g, align 8, !tbaa !3
  %157 = call i32 (ptr, ptr, i32, i64, i64, ptr, ...) @H5E_printf_stack(ptr noundef @.str, ptr noundef @__func__.H5Fclose, i32 noundef 1041, i64 noundef %155, i64 noundef %156, ptr noundef @.str.46)
  br label %158

158:                                              ; preds = %154
  br label %159

159:                                              ; preds = %158
  store i8 1, ptr %6, align 1, !tbaa !7
  %160 = load i8, ptr %6, align 1, !tbaa !7, !range !9, !noundef !10
  %161 = trunc i8 %160 to i1
  %162 = zext i1 %161 to i8
  store i8 %162, ptr %6, align 1, !tbaa !7
  br label %163

163:                                              ; preds = %159
  br label %164

164:                                              ; preds = %163
  br label %165

165:                                              ; preds = %164
  store i32 -1, ptr %3, align 4, !tbaa !18
  br label %171

166:                                              ; No predecessors!
  br label %167

167:                                              ; preds = %166
  br label %168

168:                                              ; preds = %167
  br label %169

169:                                              ; preds = %168
  br label %170

170:                                              ; preds = %169, %147
  br label %171

171:                                              ; preds = %170, %165, %142, %115, %83, %45
  %172 = load i8, ptr %5, align 1, !tbaa !7, !range !9, !noundef !10
  %173 = trunc i8 %172 to i1
  %174 = xor i1 %173, true
  %175 = xor i1 %174, true
  %176 = zext i1 %175 to i32
  %177 = sext i32 %176 to i64
  %178 = call i64 @llvm.expect.i64(i64 %177, i64 1)
  %179 = icmp ne i64 %178, 0
  br i1 %179, label %180, label %182

180:                                              ; preds = %171
  %181 = call i32 @H5CX_pop(i1 noundef zeroext true)
  store i8 0, ptr %5, align 1, !tbaa !7
  br label %182

182:                                              ; preds = %180, %171
  %183 = load i8, ptr %6, align 1, !tbaa !7, !range !9, !noundef !10
  %184 = trunc i8 %183 to i1
  %185 = xor i1 %184, true
  %186 = xor i1 %185, true
  %187 = zext i1 %186 to i32
  %188 = sext i32 %187 to i64
  %189 = call i64 @llvm.expect.i64(i64 %188, i64 0)
  %190 = icmp ne i64 %189, 0
  br i1 %190, label %191, label %193

191:                                              ; preds = %182
  %192 = call i32 @H5E_dump_api_stack()
  br label %193

193:                                              ; preds = %191, %182
  %194 = load i32, ptr %3, align 4, !tbaa !18
  call void @llvm.lifetime.end.p0(i64 1, ptr %6) #5
  call void @llvm.lifetime.end.p0(i64 1, ptr %5) #5
  call void @llvm.lifetime.end.p0(i64 480, ptr %4) #5
  call void @llvm.lifetime.end.p0(i64 4, ptr %3) #5
  ret i32 %194
}