; Function Attrs: nounwind uwtable
define range(i32 -1, 1) i32 @H5Fclose(i64 noundef %0) local_unnamed_addr #0 {
  %2 = alloca %struct.H5CX_node_t, align 8
  call void @llvm.lifetime.start.p0(i64 480, ptr nonnull %2) #6
  call void @llvm.memset.p0.i64(ptr noundef nonnull align 8 dereferenceable(480) %2, i8 0, i64 480, i1 false)
  %3 = load i8, ptr @H5_libinit_g, align 1, !tbaa !3, !range !7, !noundef !8
  %4 = trunc nuw i8 %3 to i1
  %5 = load i8, ptr @H5_libterm_g, align 1, !range !7
  %6 = trunc nuw i8 %5 to i1
  %7 = select i1 %4, i1 true, i1 %6
  br i1 %7, label %15, label %8, !prof !9

8:                                                ; preds = %1
  %9 = tail call i32 @H5_init_library() #6
  %10 = icmp slt i32 %9, 0
  br i1 %10, label %11, label %._crit_edge, !prof !10

._crit_edge:                                      ; preds = %8
  %.pre = load i8, ptr @H5_libterm_g, align 1, !range !7
  br label %15

11:                                               ; preds = %8
  %12 = load i64, ptr @H5E_FUNC_g, align 8, !tbaa !11
  %13 = load i64, ptr @H5E_CANTINIT_g, align 8, !tbaa !11
  %14 = tail call i32 (ptr, ptr, i32, i64, i64, ptr, ...) @H5E_printf_stack(ptr noundef nonnull @.str, ptr noundef nonnull @__func__.H5Fclose, i32 noundef 1031, i64 noundef %12, i64 noundef %13, ptr noundef nonnull @.str.1) #6
  br label %.thread20

15:                                               ; preds = %._crit_edge, %1
  %16 = phi i8 [ %.pre, %._crit_edge ], [ %5, %1 ]
  %17 = load i8, ptr @H5F_init_g, align 1, !tbaa !3, !range !7, !noundef !8
  %18 = trunc nuw i8 %17 to i1
  %19 = trunc nuw i8 %16 to i1
  %20 = select i1 %18, i1 true, i1 %19
  br i1 %20, label %28, label %21, !prof !9

21:                                               ; preds = %15
  store i8 1, ptr @H5F_init_g, align 1, !tbaa !3
  %22 = tail call i32 @H5F__init_package() #6
  %23 = icmp slt i32 %22, 0
  br i1 %23, label %24, label %28, !prof !13

24:                                               ; preds = %21
  store i8 0, ptr @H5F_init_g, align 1, !tbaa !3
  %25 = load i64, ptr @H5E_FUNC_g, align 8, !tbaa !11
  %26 = load i64, ptr @H5E_CANTINIT_g, align 8, !tbaa !11
  %27 = tail call i32 (ptr, ptr, i32, i64, i64, ptr, ...) @H5E_printf_stack(ptr noundef nonnull @.str, ptr noundef nonnull @__func__.H5Fclose, i32 noundef 1031, i64 noundef %25, i64 noundef %26, ptr noundef nonnull @.str.2) #6
  br label %.thread20

28:                                               ; preds = %15, %21
  %29 = call i32 @H5CX_push(ptr noundef nonnull %2) #6
  %30 = icmp slt i32 %29, 0
  br i1 %30, label %31, label %35, !prof !10

31:                                               ; preds = %28
  %32 = load i64, ptr @H5E_FUNC_g, align 8, !tbaa !11
  %33 = load i64, ptr @H5E_CANTSET_g, align 8, !tbaa !11
  %34 = call i32 (ptr, ptr, i32, i64, i64, ptr, ...) @H5E_printf_stack(ptr noundef nonnull @.str, ptr noundef nonnull @__func__.H5Fclose, i32 noundef 1031, i64 noundef %32, i64 noundef %33, ptr noundef nonnull @.str.3) #6
  br label %.thread20

35:                                               ; preds = %28
  %36 = call i32 @H5E_clear_stack() #6
  %37 = call i32 @H5I_get_type(i64 noundef %0) #6
  %.not = icmp eq i32 %37, 1
  br i1 %.not, label %42, label %38, !prof !39

38:                                               ; preds = %35
  %39 = load i64, ptr @H5E_ARGS_g, align 8, !tbaa !11
  %40 = load i64, ptr @H5E_BADTYPE_g, align 8, !tbaa !11
  %41 = call i32 (ptr, ptr, i32, i64, i64, ptr, ...) @H5E_printf_stack(ptr noundef nonnull @.str, ptr noundef nonnull @__func__.H5Fclose, i32 noundef 1035, i64 noundef %39, i64 noundef %40, ptr noundef nonnull @.str.45) #6
  br label %.thread26

42:                                               ; preds = %35
  %43 = call i32 @H5I_dec_app_ref(i64 noundef %0) #6
  %44 = icmp slt i32 %43, 0
  br i1 %44, label %45, label %50, !prof !14

45:                                               ; preds = %42
  %46 = load i64, ptr @H5E_FILE_g, align 8, !tbaa !11
  %47 = load i64, ptr @H5E_CANTCLOSEFILE_g, align 8, !tbaa !11
  %48 = call i32 (ptr, ptr, i32, i64, i64, ptr, ...) @H5E_printf_stack(ptr noundef nonnull @.str, ptr noundef nonnull @__func__.H5Fclose, i32 noundef 1041, i64 noundef %46, i64 noundef %47, ptr noundef nonnull @.str.46) #6
  br label %.thread26

.thread26:                                        ; preds = %45, %38
  %49 = call i32 @H5CX_pop(i1 noundef zeroext true) #6
  br label %.thread20

50:                                               ; preds = %42
  %51 = call i32 @H5CX_pop(i1 noundef zeroext true) #6
  br label %53

.thread20:                                        ; preds = %31, %24, %11, %.thread26
  %52 = call i32 @H5E_dump_api_stack() #6
  br label %53

53:                                               ; preds = %50, %.thread20
  %.0111523 = phi i32 [ -1, %.thread20 ], [ 0, %50 ]
  call void @llvm.lifetime.end.p0(i64 480, ptr nonnull %2) #6
  ret i32 %.0111523
}